; Function Attrs: mustprogress uwtable
define internal noundef zeroext i1 @"_ZNSt17_Function_handlerIFbvEZN6google8protobuf2io7Printer9ValueImplILb1EE18ToStringOrCallbackIZNS2_8compiler3cpp14MaybeBootstrapERKNS9_7OptionsEPNS8_16GeneratorContextEbPNSt7__cxx1112basic_stringIcSt11char_traitsIcESaIcEEEE3$_0vEESt7variantIJSK_St8functionIS0_EEEOT_NS6_5Rank2EEUlvE_E9_M_invokeERKSt9_Any_data"(ptr nocapture noundef nonnull readonly align 8 dereferenceable(16) %__functor) #4 align 2 personality ptr @__gxx_personality_v0 {
entry:
  %__functor.val = load ptr, ptr %__functor, align 8
  %0 = getelementptr inbounds i8, ptr %__functor.val, i64 16
  %1 = load i8, ptr %0, align 8
  %2 = and i8 %1, 1
  %tobool.not.i.i.i = icmp eq i8 %2, 0
  br i1 %tobool.not.i.i.i, label %if.end.i.i.i, label %"_ZSt10__invoke_rIbRZN6google8protobuf2io7Printer9ValueImplILb1EE18ToStringOrCallbackIZNS1_8compiler3cpp14MaybeBootstrapERKNS8_7OptionsEPNS7_16GeneratorContextEbPNSt7__cxx1112basic_stringIcSt11char_traitsIcESaIcEEEE3$_0vEESt7variantIJSJ_St8functionIFbvEEEEOT_NS5_5Rank2EEUlvE_JEENSt9enable_ifIX16is_invocable_r_vISR_T0_DpT1_EESR_E4typeEOSX_DpOSY_.exit"

if.end.i.i.i:                                     ; preds = %entry
  store i8 1, ptr %0, align 8
  %this.val.i.i.i = load ptr, ptr %__functor.val, align 8
  %3 = getelementptr i8, ptr %this.val.i.i.i, i64 199
  %this.val.val.i.i.i = load i8, ptr %3, align 1
  %4 = and i8 %this.val.val.i.i.i, 1
  %tobool.not.i.i.i.i = icmp eq i8 %4, 0
  br i1 %tobool.not.i.i.i.i, label %if.end.i.i.i.i, label %"_ZZN6google8protobuf8compiler3cpp14MaybeBootstrapERKNS2_7OptionsEPNS1_16GeneratorContextEbPNSt7__cxx1112basic_stringIcSt11char_traitsIcESaIcEEEENK3$_0clEv.exit.i.i.i"

if.end.i.i.i.i:                                   ; preds = %if.end.i.i.i
  %5 = getelementptr inbounds i8, ptr %__functor.val, i64 8
  %this.val1.i.i.i = load ptr, ptr %5, align 8
  tail call void @_ZN6google8protobuf2io7Printer4EmitEN4absl12lts_202308024SpanIKNS2_3SubEEESt17basic_string_viewIcSt11char_traitsIcEENS2_14SourceLocationE(ptr noundef nonnull align 8 dereferenceable(256) %this.val1.i.i.i, ptr null, i64 0, i64 112, ptr nonnull @.str.277)
  br label %"_ZZN6google8protobuf8compiler3cpp14MaybeBootstrapERKNS2_7OptionsEPNS1_16GeneratorContextEbPNSt7__cxx1112basic_stringIcSt11char_traitsIcESaIcEEEENK3$_0clEv.exit.i.i.i"

"_ZZN6google8protobuf8compiler3cpp14MaybeBootstrapERKNS2_7OptionsEPNS1_16GeneratorContextEbPNSt7__cxx1112basic_stringIcSt11char_traitsIcESaIcEEEENK3$_0clEv.exit.i.i.i": ; preds = %if.end.i.i.i.i, %if.end.i.i.i
  store i8 0, ptr %0, align 8
  br label %"_ZSt10__invoke_rIbRZN6google8protobuf2io7Printer9ValueImplILb1EE18ToStringOrCallbackIZNS1_8compiler3cpp14MaybeBootstrapERKNS8_7OptionsEPNS7_16GeneratorContextEbPNSt7__cxx1112basic_stringIcSt11char_traitsIcESaIcEEEE3$_0vEESt7variantIJSJ_St8functionIFbvEEEEOT_NS5_5Rank2EEUlvE_JEENSt9enable_ifIX16is_invocable_r_vISR_T0_DpT1_EESR_E4typeEOSX_DpOSY_.exit"

"_ZSt10__invoke_rIbRZN6google8protobuf2io7Printer9ValueImplILb1EE18ToStringOrCallbackIZNS1_8compiler3cpp14MaybeBootstrapERKNS8_7OptionsEPNS7_16GeneratorContextEbPNSt7__cxx1112basic_stringIcSt11char_traitsIcESaIcEEEE3$_0vEESt7variantIJSJ_St8functionIFbvEEEEOT_NS5_5Rank2EEUlvE_JEENSt9enable_ifIX16is_invocable_r_vISR_T0_DpT1_EESR_E4typeEOSX_DpOSY_.exit": ; preds = %entry, %"_ZZN6google8protobuf8compiler3cpp14MaybeBootstrapERKNS2_7OptionsEPNS1_16GeneratorContextEbPNSt7__cxx1112basic_stringIcSt11char_traitsIcESaIcEEEENK3$_0clEv.exit.i.i.i"
  ret i1 %tobool.not.i.i.i
}